target datalayout = "e-m:e-p270:32:32-p271:32:32-p272:64:64-i64:64-i128:128-f80:128-n8:16:32:64-S128"
target triple = "x86_64-pc-linux-gnu"

%struct.ec_method_st = type { i32, i32, ptr, ptr, ptr, ptr, ptr, ptr, ptr, ptr, ptr, ptr, ptr, ptr, ptr, ptr, ptr, ptr, ptr, ptr, ptr, ptr, ptr, ptr, ptr, ptr, ptr, ptr, ptr, ptr, ptr, ptr, ptr, ptr, ptr, ptr, ptr, ptr, ptr, ptr, ptr, ptr, ptr, ptr, ptr, ptr, ptr, ptr, ptr, ptr, ptr, ptr, ptr, ptr, ptr, ptr, ptr }
%struct.ec_group_st = type { ptr, ptr, ptr, ptr, i32, i32, i32, i32, ptr, i64, ptr, [6 x i32], ptr, ptr, i32, ptr, ptr, ptr, ptr, i32, %union.anon, ptr, ptr }
%union.anon = type { ptr }
%struct.ec_point_st = type { ptr, i32, ptr, ptr, ptr, i32 }

; Function Attrs: nounwind uwtable
define i32 @ossl_ec_GFp_simple_get_Jprojective_coordinates_GFp(ptr noundef %0, ptr noundef %1, ptr noundef %2, ptr noundef %3, ptr noundef %4, ptr noundef %5) #0 {
  %7 = alloca i32, align 4
  %8 = alloca ptr, align 8
  %9 = alloca ptr, align 8
  %10 = alloca ptr, align 8
  %11 = alloca ptr, align 8
  %12 = alloca ptr, align 8
  %13 = alloca ptr, align 8
  %14 = alloca ptr, align 8
  %15 = alloca i32, align 4
  %16 = alloca i32, align 4
  store ptr %0, ptr %8, align 8, !tbaa !3
  store ptr %1, ptr %9, align 8, !tbaa !30
  store ptr %2, ptr %10, align 8, !tbaa !21
  store ptr %3, ptr %11, align 8, !tbaa !21
  store ptr %4, ptr %12, align 8, !tbaa !21
  store ptr %5, ptr %13, align 8, !tbaa !22
  call void @llvm.lifetime.start.p0(i64 8, ptr %14) #3
  store ptr null, ptr %14, align 8, !tbaa !22
  call void @llvm.lifetime.start.p0(i64 4, ptr %15) #3
  store i32 0, ptr %15, align 4, !tbaa !24
  %17 = load ptr, ptr %8, align 8, !tbaa !3
  %18 = getelementptr inbounds nuw %struct.ec_group_st, ptr %17, i32 0, i32 0
  %19 = load ptr, ptr %18, align 8, !tbaa !26
  %20 = getelementptr inbounds nuw %struct.ec_method_st, ptr %19, i32 0, i32 37
  %21 = load ptr, ptr %20, align 8, !tbaa !29
  %22 = icmp ne ptr %21, null
  br i1 %22, label %23, label %93

23:                                               ; preds = %6
  %24 = load ptr, ptr %13, align 8, !tbaa !22
  %25 = icmp eq ptr %24, null
  br i1 %25, label %26, label %35

26:                                               ; preds = %23
  %27 = load ptr, ptr %8, align 8, !tbaa !3
  %28 = getelementptr inbounds nuw %struct.ec_group_st, ptr %27, i32 0, i32 21
  %29 = load ptr, ptr %28, align 8, !tbaa !25
  %30 = call ptr @BN_CTX_new_ex(ptr noundef %29)
  store ptr %30, ptr %14, align 8, !tbaa !22
  store ptr %30, ptr %13, align 8, !tbaa !22
  %31 = load ptr, ptr %13, align 8, !tbaa !22
  %32 = icmp eq ptr %31, null
  br i1 %32, label %33, label %34

33:                                               ; preds = %26
  store i32 0, ptr %7, align 4
  store i32 1, ptr %16, align 4
  br label %134

34:                                               ; preds = %26
  br label %35

35:                                               ; preds = %34, %23
  %36 = load ptr, ptr %10, align 8, !tbaa !21
  %37 = icmp ne ptr %36, null
  br i1 %37, label %38, label %54

38:                                               ; preds = %35
  %39 = load ptr, ptr %8, align 8, !tbaa !3
  %40 = getelementptr inbounds nuw %struct.ec_group_st, ptr %39, i32 0, i32 0
  %41 = load ptr, ptr %40, align 8, !tbaa !26
  %42 = getelementptr inbounds nuw %struct.ec_method_st, ptr %41, i32 0, i32 37
  %43 = load ptr, ptr %42, align 8, !tbaa !29
  %44 = load ptr, ptr %8, align 8, !tbaa !3
  %45 = load ptr, ptr %10, align 8, !tbaa !21
  %46 = load ptr, ptr %9, align 8, !tbaa !30
  %47 = getelementptr inbounds nuw %struct.ec_point_st, ptr %46, i32 0, i32 2
  %48 = load ptr, ptr %47, align 8, !tbaa !31
  %49 = load ptr, ptr %13, align 8, !tbaa !22
  %50 = call i32 %43(ptr noundef %44, ptr noundef %45, ptr noundef %48, ptr noundef %49)
  %51 = icmp ne i32 %50, 0
  br i1 %51, label %53, label %52

52:                                               ; preds = %38
  br label %131

53:                                               ; preds = %38
  br label %54

54:                                               ; preds = %53, %35
  %55 = load ptr, ptr %11, align 8, !tbaa !21
  %56 = icmp ne ptr %55, null
  br i1 %56, label %57, label %73

57:                                               ; preds = %54
  %58 = load ptr, ptr %8, align 8, !tbaa !3
  %59 = getelementptr inbounds nuw %struct.ec_group_st, ptr %58, i32 0, i32 0
  %60 = load ptr, ptr %59, align 8, !tbaa !26
  %61 = getelementptr inbounds nuw %struct.ec_method_st, ptr %60, i32 0, i32 37
  %62 = load ptr, ptr %61, align 8, !tbaa !29
  %63 = load ptr, ptr %8, align 8, !tbaa !3
  %64 = load ptr, ptr %11, align 8, !tbaa !21
  %65 = load ptr, ptr %9, align 8, !tbaa !30
  %66 = getelementptr inbounds nuw %struct.ec_point_st, ptr %65, i32 0, i32 3
  %67 = load ptr, ptr %66, align 8, !tbaa !33
  %68 = load ptr, ptr %13, align 8, !tbaa !22
  %69 = call i32 %62(ptr noundef %63, ptr noundef %64, ptr noundef %67, ptr noundef %68)
  %70 = icmp ne i32 %69, 0
  br i1 %70, label %72, label %71

71:                                               ; preds = %57
  br label %131

72:                                               ; preds = %57
  br label %73

73:                                               ; preds = %72, %54
  %74 = load ptr, ptr %12, align 8, !tbaa !21
  %75 = icmp ne ptr %74, null
  br i1 %75, label %76, label %92

76:                                               ; preds = %73
  %77 = load ptr, ptr %8, align 8, !tbaa !3
  %78 = getelementptr inbounds nuw %struct.ec_group_st, ptr %77, i32 0, i32 0
  %79 = load ptr, ptr %78, align 8, !tbaa !26
  %80 = getelementptr inbounds nuw %struct.ec_method_st, ptr %79, i32 0, i32 37
  %81 = load ptr, ptr %80, align 8, !tbaa !29
  %82 = load ptr, ptr %8, align 8, !tbaa !3
  %83 = load ptr, ptr %12, align 8, !tbaa !21
  %84 = load ptr, ptr %9, align 8, !tbaa !30
  %85 = getelementptr inbounds nuw %struct.ec_point_st, ptr %84, i32 0, i32 4
  %86 = load ptr, ptr %85, align 8, !tbaa !34
  %87 = load ptr, ptr %13, align 8, !tbaa !22
  %88 = call i32 %81(ptr noundef %82, ptr noundef %83, ptr noundef %86, ptr noundef %87)
  %89 = icmp ne i32 %88, 0
  br i1 %89, label %91, label %90

90:                                               ; preds = %76
  br label %131

91:                                               ; preds = %76
  br label %92

92:                                               ; preds = %91, %73
  br label %130

93:                                               ; preds = %6
  %94 = load ptr, ptr %10, align 8, !tbaa !21
  %95 = icmp ne ptr %94, null
  br i1 %95, label %96, label %105

96:                                               ; preds = %93
  %97 = load ptr, ptr %10, align 8, !tbaa !21
  %98 = load ptr, ptr %9, align 8, !tbaa !30
  %99 = getelementptr inbounds nuw %struct.ec_point_st, ptr %98, i32 0, i32 2
  %100 = load ptr, ptr %99, align 8, !tbaa !31
  %101 = call ptr @BN_copy(ptr noundef %97, ptr noundef %100)
  %102 = icmp ne ptr %101, null
  br i1 %102, label %104, label %103

103:                                              ; preds = %96
  br label %131

104:                                              ; preds = %96
  br label %105

105:                                              ; preds = %104, %93
  %106 = load ptr, ptr %11, align 8, !tbaa !21
  %107 = icmp ne ptr %106, null
  br i1 %107, label %108, label %117

108:                                              ; preds = %105
  %109 = load ptr, ptr %11, align 8, !tbaa !21
  %110 = load ptr, ptr %9, align 8, !tbaa !30
  %111 = getelementptr inbounds nuw %struct.ec_point_st, ptr %110, i32 0, i32 3
  %112 = load ptr, ptr %111, align 8, !tbaa !33
  %113 = call ptr @BN_copy(ptr noundef %109, ptr noundef %112)
  %114 = icmp ne ptr %113, null
  br i1 %114, label %116, label %115

115:                                              ; preds = %108
  br label %131

116:                                              ; preds = %108
  br label %117

117:                                              ; preds = %116, %105
  %118 = load ptr, ptr %12, align 8, !tbaa !21
  %119 = icmp ne ptr %118, null
  br i1 %119, label %120, label %129

120:                                              ; preds = %117
  %121 = load ptr, ptr %12, align 8, !tbaa !21
  %122 = load ptr, ptr %9, align 8, !tbaa !30
  %123 = getelementptr inbounds nuw %struct.ec_point_st, ptr %122, i32 0, i32 4
  %124 = load ptr, ptr %123, align 8, !tbaa !34
  %125 = call ptr @BN_copy(ptr noundef %121, ptr noundef %124)
  %126 = icmp ne ptr %125, null
  br i1 %126, label %128, label %127

127:                                              ; preds = %120
  br label %131

128:                                              ; preds = %120
  br label %129

129:                                              ; preds = %128, %117
  br label %130

130:                                              ; preds = %129, %92
  store i32 1, ptr %15, align 4, !tbaa !24
  br label %131

131:                                              ; preds = %130, %127, %115, %103, %90, %71, %52
  %132 = load ptr, ptr %14, align 8, !tbaa !22
  call void @BN_CTX_free(ptr noundef %132)
  %133 = load i32, ptr %15, align 4, !tbaa !24
  store i32 %133, ptr %7, align 4
  store i32 1, ptr %16, align 4
  br label %134

134:                                              ; preds = %131, %33
  call void @llvm.lifetime.end.p0(i64 4, ptr %15) #3
  call void @llvm.lifetime.end.p0(i64 8, ptr %14) #3
  %135 = load i32, ptr %7, align 4
  ret i32 %135
}