; Function Attrs: nounwind uwtable
define range(i32 0, 2) i32 @ossl_ec_GFp_simple_get_Jprojective_coordinates_GFp(ptr noundef %0, ptr noundef readonly captures(none) %1, ptr noundef %2, ptr noundef %3, ptr noundef %4, ptr noundef %5) local_unnamed_addr #1 {
  %7 = load ptr, ptr %0, align 8, !tbaa !20
  %8 = getelementptr inbounds nuw i8, ptr %7, i64 288
  %9 = load ptr, ptr %8, align 8, !tbaa !23
  %.not = icmp eq ptr %9, null
  br i1 %.not, label %41, label %10

10:                                               ; preds = %6
  %11 = icmp eq ptr %5, null
  br i1 %11, label %12, label %17

12:                                               ; preds = %10
  %13 = getelementptr inbounds nuw i8, ptr %0, i64 168
  %14 = load ptr, ptr %13, align 8, !tbaa !19
  %15 = tail call ptr @BN_CTX_new_ex(ptr noundef %14) #4
  %16 = icmp eq ptr %15, null
  br i1 %16, label %58, label %17

17:                                               ; preds = %12, %10
  %.034 = phi ptr [ %15, %12 ], [ %5, %10 ]
  %.033 = phi ptr [ %15, %12 ], [ null, %10 ]
  %.not50 = icmp eq ptr %2, null
  br i1 %.not50, label %25, label %18

18:                                               ; preds = %17
  %19 = load ptr, ptr %0, align 8, !tbaa !20
  %20 = getelementptr inbounds nuw i8, ptr %19, i64 288
  %21 = load ptr, ptr %20, align 8, !tbaa !23
  %22 = getelementptr inbounds nuw i8, ptr %1, i64 16
  %23 = load ptr, ptr %22, align 8, !tbaa !24
  %24 = tail call i32 %21(ptr noundef nonnull %0, ptr noundef nonnull %2, ptr noundef %23, ptr noundef nonnull %.034) #4
  %.not51 = icmp eq i32 %24, 0
  br i1 %.not51, label %57, label %25

25:                                               ; preds = %18, %17
  %.not52 = icmp eq ptr %3, null
  br i1 %.not52, label %33, label %26

26:                                               ; preds = %25
  %27 = load ptr, ptr %0, align 8, !tbaa !20
  %28 = getelementptr inbounds nuw i8, ptr %27, i64 288
  %29 = load ptr, ptr %28, align 8, !tbaa !23
  %30 = getelementptr inbounds nuw i8, ptr %1, i64 24
  %31 = load ptr, ptr %30, align 8, !tbaa !26
  %32 = tail call i32 %29(ptr noundef nonnull %0, ptr noundef nonnull %3, ptr noundef %31, ptr noundef nonnull %.034) #4
  %.not53 = icmp eq i32 %32, 0
  br i1 %.not53, label %57, label %33

33:                                               ; preds = %26, %25
  %.not54 = icmp eq ptr %4, null
  br i1 %.not54, label %56, label %34

34:                                               ; preds = %33
  %35 = load ptr, ptr %0, align 8, !tbaa !20
  %36 = getelementptr inbounds nuw i8, ptr %35, i64 288
  %37 = load ptr, ptr %36, align 8, !tbaa !23
  %38 = getelementptr inbounds nuw i8, ptr %1, i64 32
  %39 = load ptr, ptr %38, align 8, !tbaa !27
  %40 = tail call i32 %37(ptr noundef nonnull %0, ptr noundef nonnull %4, ptr noundef %39, ptr noundef nonnull %.034) #4
  %.not55 = icmp eq i32 %40, 0
  br i1 %.not55, label %57, label %56

41:                                               ; preds = %6
  %.not44 = icmp eq ptr %2, null
  br i1 %.not44, label %46, label %42

42:                                               ; preds = %41
  %43 = getelementptr inbounds nuw i8, ptr %1, i64 16
  %44 = load ptr, ptr %43, align 8, !tbaa !24
  %45 = tail call ptr @BN_copy(ptr noundef nonnull %2, ptr noundef %44) #4
  %.not45 = icmp eq ptr %45, null
  br i1 %.not45, label %57, label %46

46:                                               ; preds = %42, %41
  %.not46 = icmp eq ptr %3, null
  br i1 %.not46, label %51, label %47

47:                                               ; preds = %46
  %48 = getelementptr inbounds nuw i8, ptr %1, i64 24
  %49 = load ptr, ptr %48, align 8, !tbaa !26
  %50 = tail call ptr @BN_copy(ptr noundef nonnull %3, ptr noundef %49) #4
  %.not47 = icmp eq ptr %50, null
  br i1 %.not47, label %57, label %51

51:                                               ; preds = %47, %46
  %.not48 = icmp eq ptr %4, null
  br i1 %.not48, label %56, label %52

52:                                               ; preds = %51
  %53 = getelementptr inbounds nuw i8, ptr %1, i64 32
  %54 = load ptr, ptr %53, align 8, !tbaa !27
  %55 = tail call ptr @BN_copy(ptr noundef nonnull %4, ptr noundef %54) #4
  %.not49 = icmp eq ptr %55, null
  br i1 %.not49, label %57, label %56

56:                                               ; preds = %51, %52, %33, %34
  %.2 = phi ptr [ %.033, %34 ], [ %.033, %33 ], [ null, %52 ], [ null, %51 ]
  br label %57

57:                                               ; preds = %52, %47, %42, %34, %26, %18, %56
  %.1 = phi ptr [ %.2, %56 ], [ %.033, %34 ], [ %.033, %26 ], [ %.033, %18 ], [ null, %52 ], [ null, %47 ], [ null, %42 ]
  %.0 = phi i32 [ 1, %56 ], [ 0, %34 ], [ 0, %26 ], [ 0, %18 ], [ 0, %52 ], [ 0, %47 ], [ 0, %42 ]
  tail call void @BN_CTX_free(ptr noundef %.1) #4
  br label %58

58:                                               ; preds = %12, %57
  %.035 = phi i32 [ %.0, %57 ], [ 0, %12 ]
  ret i32 %.035
}